; Function Attrs: nounwind uwtable
define noalias nonnull ptr @l_Lean_isTracingEnabledFor___at_Lean_Meta_Grind_Canon_canonImpl_visit___spec__8(ptr noundef %0, ptr noundef readnone captures(none) %1, ptr noundef readnone captures(none) %2, ptr noundef readnone captures(none) %3, ptr noundef readnone captures(none) %4, ptr noundef readnone captures(none) %5, ptr noundef readnone captures(none) %6, ptr noundef readnone captures(none) %7, ptr noundef readonly captures(none) %8, ptr noundef readnone captures(none) %9, ptr noundef %10) local_unnamed_addr #1 {
  %12 = getelementptr inbounds nuw i8, ptr %8, i64 104
  %13 = load ptr, ptr %12, align 8, !tbaa !9
  %14 = getelementptr inbounds nuw i8, ptr %8, i64 24
  %15 = load ptr, ptr %14, align 8, !tbaa !9
  %16 = tail call zeroext i8 @l_Lean_checkTraceOption(ptr noundef %13, ptr noundef %15, ptr noundef %0) #9
  tail call void @lean_inc_heartbeat() #9
  %17 = tail call noalias ptr @mi_malloc_small(i64 noundef 24) #9
  %18 = icmp eq ptr %17, null
  br i1 %18, label %19, label %lean_alloc_ctor.exit

19:                                               ; preds = %11
  tail call void @lean_internal_panic_out_of_memory() #10
  unreachable

lean_alloc_ctor.exit:                             ; preds = %11
  %20 = zext i8 %16 to i64
  %21 = shl nuw nsw i64 %20, 1
  %22 = or disjoint i64 %21, 1
  %23 = inttoptr i64 %22 to ptr
  %24 = getelementptr inbounds nuw i8, ptr %17, i64 4
  store i32 1, ptr %17, align 4, !tbaa !4
  store i32 131096, ptr %24, align 4
  %25 = getelementptr inbounds nuw i8, ptr %17, i64 8
  store ptr %23, ptr %25, align 8, !tbaa !9
  %26 = getelementptr inbounds nuw i8, ptr %17, i64 16
  store ptr %10, ptr %26, align 8, !tbaa !9
  ret ptr %17
}